; Function Attrs: mustprogress nounwind uwtable
define hidden void @_ZN4ncnn21Yolov3DetectionOutputD2Ev(ptr noundef nonnull align 8 dereferenceable(456) initializes((0, 8)) %0) unnamed_addr #0 align 2 personality ptr @__gxx_personality_v0 {
  store ptr getelementptr inbounds nuw inrange(-16, 80) (i8, ptr @_ZTVN4ncnn21Yolov3DetectionOutputE, i64 16), ptr %0, align 8, !tbaa !37
  %2 = getelementptr inbounds nuw i8, ptr %0, i64 368
  %3 = getelementptr inbounds nuw i8, ptr %0, i64 376
  %4 = load ptr, ptr %3, align 8, !tbaa !34
  %.not.i = icmp eq ptr %4, null
  br i1 %.not.i, label %_ZN4ncnn3MatD2Ev.exit2, label %5

5:                                                ; preds = %1
  %6 = atomicrmw add ptr %4, i32 -1 acq_rel, align 4
  %7 = icmp eq i32 %6, 1
  br i1 %7, label %8, label %_ZN4ncnn3MatD2Ev.exit2

8:                                                ; preds = %5
  %9 = getelementptr inbounds nuw i8, ptr %0, i64 400
  %10 = load ptr, ptr %9, align 8, !tbaa !35
  %.not3.i = icmp eq ptr %10, null
  %11 = load ptr, ptr %2, align 8, !tbaa !36
  br i1 %.not3.i, label %16, label %12

12:                                               ; preds = %8
  %13 = load ptr, ptr %10, align 8, !tbaa !37
  %14 = getelementptr inbounds nuw i8, ptr %13, i64 24
  %15 = load ptr, ptr %14, align 8
  invoke void %15(ptr noundef nonnull align 8 dereferenceable(8) %10, ptr noundef %11)
          to label %_ZN4ncnn3MatD2Ev.exit2 unwind label %18

16:                                               ; preds = %8
  %.not.i14 = icmp eq ptr %11, null
  br i1 %.not.i14, label %_ZN4ncnn3MatD2Ev.exit2, label %17

17:                                               ; preds = %16
  tail call void @free(ptr noundef nonnull %11) #14
  br label %_ZN4ncnn3MatD2Ev.exit2

18:                                               ; preds = %12
  %19 = landingpad { ptr, i32 }
          catch ptr null
  %20 = extractvalue { ptr, i32 } %19, 0
  tail call void @__clang_call_terminate(ptr %20) #20
  unreachable

_ZN4ncnn3MatD2Ev.exit2:                           ; preds = %5, %1, %12, %16, %17
  %21 = getelementptr inbounds nuw i8, ptr %0, i64 408
  %22 = getelementptr inbounds nuw i8, ptr %0, i64 432
  store i64 0, ptr %22, align 8, !tbaa !33
  %23 = getelementptr inbounds nuw i8, ptr %0, i64 296
  %24 = getelementptr inbounds nuw i8, ptr %0, i64 304
  tail call void @llvm.memset.p0.i64(ptr noundef nonnull align 8 dereferenceable(28) %2, i8 0, i64 28, i1 false)
  tail call void @llvm.memset.p0.i64(ptr noundef nonnull align 8 dereferenceable(20) %21, i8 0, i64 20, i1 false)
  %25 = load ptr, ptr %24, align 8, !tbaa !34
  %.not.i3 = icmp eq ptr %25, null
  br i1 %.not.i3, label %_ZN4ncnn3MatD2Ev.exit1, label %26

26:                                               ; preds = %_ZN4ncnn3MatD2Ev.exit2
  %27 = atomicrmw add ptr %25, i32 -1 acq_rel, align 4
  %28 = icmp eq i32 %27, 1
  br i1 %28, label %29, label %_ZN4ncnn3MatD2Ev.exit1

29:                                               ; preds = %26
  %30 = getelementptr inbounds nuw i8, ptr %0, i64 328
  %31 = load ptr, ptr %30, align 8, !tbaa !35
  %.not3.i4 = icmp eq ptr %31, null
  %32 = load ptr, ptr %23, align 8, !tbaa !36
  br i1 %.not3.i4, label %37, label %33

33:                                               ; preds = %29
  %34 = load ptr, ptr %31, align 8, !tbaa !37
  %35 = getelementptr inbounds nuw i8, ptr %34, i64 24
  %36 = load ptr, ptr %35, align 8
  invoke void %36(ptr noundef nonnull align 8 dereferenceable(8) %31, ptr noundef %32)
          to label %_ZN4ncnn3MatD2Ev.exit1 unwind label %39

37:                                               ; preds = %29
  %.not.i12 = icmp eq ptr %32, null
  br i1 %.not.i12, label %_ZN4ncnn3MatD2Ev.exit1, label %38

38:                                               ; preds = %37
  tail call void @free(ptr noundef nonnull %32) #14
  br label %_ZN4ncnn3MatD2Ev.exit1

39:                                               ; preds = %33
  %40 = landingpad { ptr, i32 }
          catch ptr null
  %41 = extractvalue { ptr, i32 } %40, 0
  tail call void @__clang_call_terminate(ptr %41) #20
  unreachable

_ZN4ncnn3MatD2Ev.exit1:                           ; preds = %26, %_ZN4ncnn3MatD2Ev.exit2, %33, %37, %38
  %42 = getelementptr inbounds nuw i8, ptr %0, i64 336
  %43 = getelementptr inbounds nuw i8, ptr %0, i64 360
  store i64 0, ptr %43, align 8, !tbaa !33
  %44 = getelementptr inbounds nuw i8, ptr %0, i64 224
  %45 = getelementptr inbounds nuw i8, ptr %0, i64 232
  tail call void @llvm.memset.p0.i64(ptr noundef nonnull align 8 dereferenceable(28) %23, i8 0, i64 28, i1 false)
  tail call void @llvm.memset.p0.i64(ptr noundef nonnull align 8 dereferenceable(20) %42, i8 0, i64 20, i1 false)
  %46 = load ptr, ptr %45, align 8, !tbaa !34
  %.not.i7 = icmp eq ptr %46, null
  br i1 %.not.i7, label %_ZN4ncnn3MatD2Ev.exit, label %47

47:                                               ; preds = %_ZN4ncnn3MatD2Ev.exit1
  %48 = atomicrmw add ptr %46, i32 -1 acq_rel, align 4
  %49 = icmp eq i32 %48, 1
  br i1 %49, label %50, label %_ZN4ncnn3MatD2Ev.exit

50:                                               ; preds = %47
  %51 = getelementptr inbounds nuw i8, ptr %0, i64 256
  %52 = load ptr, ptr %51, align 8, !tbaa !35
  %.not3.i8 = icmp eq ptr %52, null
  %53 = load ptr, ptr %44, align 8, !tbaa !36
  br i1 %.not3.i8, label %58, label %54

54:                                               ; preds = %50
  %55 = load ptr, ptr %52, align 8, !tbaa !37
  %56 = getelementptr inbounds nuw i8, ptr %55, i64 24
  %57 = load ptr, ptr %56, align 8
  invoke void %57(ptr noundef nonnull align 8 dereferenceable(8) %52, ptr noundef %53)
          to label %_ZN4ncnn3MatD2Ev.exit unwind label %60

58:                                               ; preds = %50
  %.not.i11 = icmp eq ptr %53, null
  br i1 %.not.i11, label %_ZN4ncnn3MatD2Ev.exit, label %59

59:                                               ; preds = %58
  tail call void @free(ptr noundef nonnull %53) #14
  br label %_ZN4ncnn3MatD2Ev.exit

60:                                               ; preds = %54
  %61 = landingpad { ptr, i32 }
          catch ptr null
  %62 = extractvalue { ptr, i32 } %61, 0
  tail call void @__clang_call_terminate(ptr %62) #20
  unreachable

_ZN4ncnn3MatD2Ev.exit:                            ; preds = %47, %_ZN4ncnn3MatD2Ev.exit1, %54, %58, %59
  %63 = getelementptr inbounds nuw i8, ptr %0, i64 264
  %64 = getelementptr inbounds nuw i8, ptr %0, i64 288
  store i64 0, ptr %64, align 8, !tbaa !33
  tail call void @llvm.memset.p0.i64(ptr noundef nonnull align 8 dereferenceable(28) %44, i8 0, i64 28, i1 false)
  tail call void @llvm.memset.p0.i64(ptr noundef nonnull align 8 dereferenceable(20) %63, i8 0, i64 20, i1 false)
  tail call void @_ZN4ncnn5LayerD2Ev(ptr noundef nonnull align 8 dereferenceable(208) %0) #14
  ret void
}